target datalayout = "e-m:e-p270:32:32-p271:32:32-p272:64:64-i64:64-i128:128-f80:128-n8:16:32:64-S128"
target triple = "x86_64-pc-linux-gnu"

%struct.node_record = type { ptr, ptr, i16, i64, i64, ptr, ptr, ptr, i16, ptr, i16, i16, i32, i32, i64, ptr, i16, i16, ptr, ptr, ptr, ptr, ptr, i64, i64, ptr, ptr, ptr, ptr, i32, ptr, ptr, i64, i64, i32, ptr, i64, ptr, i32, i16, ptr, ptr, i32, ptr, i32, i8, ptr, i32, i16, i16, ptr, i16, i64, i16, i64, ptr, i64, i32, i16, i64, i16, ptr, i16, i64, ptr, i64, i16, i32, i16, ptr, ptr, ptr, i16, i32, i16, i16, i32, ptr, i16, i32 }

@avail_node_bitmap = dso_local global ptr null, align 8
@last_node_update = external global i64, align 8
@.str.105 = private unnamed_addr constant [37 x i8] c"node_not_resp unable to find node %s\00", align 1
@.str.106 = private unnamed_addr constant [48 x i8] c"node_not_resp: node %s responded since msg sent\00", align 1

; Function Attrs: nounwind uwtable
define dso_local void @node_not_resp(ptr noundef %0, i64 noundef %1, i32 noundef %2) #0 {
  %4 = alloca ptr, align 8
  %5 = alloca i64, align 8
  %6 = alloca i32, align 4
  %7 = alloca ptr, align 8
  %8 = alloca i32, align 4
  store ptr %0, ptr %4, align 8
  store i64 %1, ptr %5, align 8
  store i32 %2, ptr %6, align 4
  call void @llvm.lifetime.start.p0(i64 8, ptr %7) #10
  %9 = load ptr, ptr %4, align 8
  %10 = call ptr @find_node_record(ptr noundef %9)
  store ptr %10, ptr %7, align 8
  %11 = load ptr, ptr %7, align 8
  %12 = icmp eq ptr %11, null
  br i1 %12, label %13, label %16

13:                                               ; preds = %3
  %14 = load ptr, ptr %4, align 8
  %15 = call i32 (ptr, ...) @error(ptr noundef @.str.105, ptr noundef %14)
  store i32 1, ptr %8, align 4
  br label %101

16:                                               ; preds = %3
  %17 = load i32, ptr %6, align 4
  %18 = icmp ne i32 %17, 9001
  br i1 %18, label %19, label %37

19:                                               ; preds = %16
  %20 = load i64, ptr %5, align 8
  %21 = sub nsw i64 %20, 1
  %22 = load ptr, ptr %7, align 8
  %23 = getelementptr inbounds nuw %struct.node_record, ptr %22, i32 0, i32 33
  %24 = load i64, ptr %23, align 8
  %25 = icmp sgt i64 %21, %24
  br i1 %25, label %26, label %29

26:                                               ; preds = %19
  %27 = load i64, ptr %5, align 8
  %28 = sub nsw i64 %27, 1
  br label %33

29:                                               ; preds = %19
  %30 = load ptr, ptr %7, align 8
  %31 = getelementptr inbounds nuw %struct.node_record, ptr %30, i32 0, i32 33
  %32 = load i64, ptr %31, align 8
  br label %33

33:                                               ; preds = %29, %26
  %34 = phi i64 [ %28, %26 ], [ %32, %29 ]
  %35 = load ptr, ptr %7, align 8
  %36 = getelementptr inbounds nuw %struct.node_record, ptr %35, i32 0, i32 33
  store i64 %34, ptr %36, align 8
  br label %37

37:                                               ; preds = %33, %16
  %38 = load ptr, ptr %7, align 8
  %39 = getelementptr inbounds nuw %struct.node_record, ptr %38, i32 0, i32 44
  %40 = load i32, ptr %39, align 8
  %41 = and i32 %40, 15
  %42 = icmp eq i32 %41, 1
  br i1 %42, label %46, label %43

43:                                               ; preds = %37
  %44 = load ptr, ptr %7, align 8
  %45 = getelementptr inbounds nuw %struct.node_record, ptr %44, i32 0, i32 45
  store i8 1, ptr %45, align 4
  br label %46

46:                                               ; preds = %43, %37
  %47 = load ptr, ptr %7, align 8
  %48 = getelementptr inbounds nuw %struct.node_record, ptr %47, i32 0, i32 44
  %49 = load i32, ptr %48, align 8
  %50 = zext i32 %49 to i64
  %51 = and i64 %50, 2048
  %52 = icmp ne i64 %51, 0
  br i1 %52, label %67, label %53

53:                                               ; preds = %46
  %54 = load ptr, ptr %7, align 8
  %55 = getelementptr inbounds nuw %struct.node_record, ptr %54, i32 0, i32 44
  %56 = load i32, ptr %55, align 8
  %57 = zext i32 %56 to i64
  %58 = and i64 %57, 262144
  %59 = icmp ne i64 %58, 0
  br i1 %59, label %67, label %60

60:                                               ; preds = %53
  %61 = load ptr, ptr %7, align 8
  %62 = getelementptr inbounds nuw %struct.node_record, ptr %61, i32 0, i32 44
  %63 = load i32, ptr %62, align 8
  %64 = zext i32 %63 to i64
  %65 = and i64 %64, 4096
  %66 = icmp ne i64 %65, 0
  br i1 %66, label %67, label %68

67:                                               ; preds = %60, %53, %46
  store i32 1, ptr %8, align 4
  br label %101

68:                                               ; preds = %60
  %69 = load ptr, ptr %7, align 8
  %70 = getelementptr inbounds nuw %struct.node_record, ptr %69, i32 0, i32 33
  %71 = load i64, ptr %70, align 8
  %72 = load i64, ptr %5, align 8
  %73 = icmp sge i64 %71, %72
  br i1 %73, label %74, label %88

74:                                               ; preds = %68
  br label %75

75:                                               ; preds = %74
  br label %76

76:                                               ; preds = %75
  %77 = call i32 @get_log_level()
  %78 = icmp sge i32 %77, 5
  br i1 %78, label %79, label %83

79:                                               ; preds = %76
  %80 = load ptr, ptr %7, align 8
  %81 = getelementptr inbounds nuw %struct.node_record, ptr %80, i32 0, i32 37
  %82 = load ptr, ptr %81, align 8
  call void (i32, ptr, ...) @log_var(i32 noundef 5, ptr noundef @.str.106, ptr noundef %82)
  br label %83

83:                                               ; preds = %79, %76
  br label %84

84:                                               ; preds = %83
  br label %85

85:                                               ; preds = %84
  br label %86

86:                                               ; preds = %85
  br label %87

87:                                               ; preds = %86
  store i32 1, ptr %8, align 4
  br label %101

88:                                               ; preds = %68
  %89 = load ptr, ptr %7, align 8
  %90 = getelementptr inbounds nuw %struct.node_record, ptr %89, i32 0, i32 44
  %91 = load i32, ptr %90, align 8
  %92 = zext i32 %91 to i64
  %93 = or i64 %92, 2048
  %94 = trunc i64 %93 to i32
  store i32 %94, ptr %90, align 8
  %95 = call i64 @time(ptr noundef null) #10
  store i64 %95, ptr @last_node_update, align 8
  %96 = load ptr, ptr @avail_node_bitmap, align 8
  %97 = load ptr, ptr %7, align 8
  %98 = getelementptr inbounds nuw %struct.node_record, ptr %97, i32 0, i32 29
  %99 = load i32, ptr %98, align 8
  %100 = zext i32 %99 to i64
  call void @bit_clear(ptr noundef %96, i64 noundef %100)
  store i32 0, ptr %8, align 4
  br label %101

101:                                              ; preds = %88, %87, %67, %13
  call void @llvm.lifetime.end.p0(i64 8, ptr %7) #10
  %102 = load i32, ptr %8, align 4
  switch i32 %102, label %104 [
    i32 0, label %103
    i32 1, label %103
  ]

103:                                              ; preds = %101, %101
  ret void

104:                                              ; preds = %101
  unreachable
}