; Function Attrs: nounwind uwtable
define dso_local void @node_not_resp(ptr noundef %0, i64 noundef %1, i32 noundef %2) local_unnamed_addr #0 {
  %4 = tail call ptr @find_node_record(ptr noundef %0) #15
  %5 = icmp eq ptr %4, null
  br i1 %5, label %6, label %8

6:                                                ; preds = %3
  %7 = tail call i32 (ptr, ...) @error(ptr noundef nonnull @.str.105, ptr noundef %0) #15
  br label %38

8:                                                ; preds = %3
  %.not = icmp eq i32 %2, 9001
  br i1 %.not, label %13, label %9

9:                                                ; preds = %8
  %10 = add nsw i64 %1, -1
  %11 = getelementptr inbounds nuw i8, ptr %4, i64 240
  %12 = load i64, ptr %11, align 8
  %. = tail call i64 @llvm.smax.i64(i64 %10, i64 %12)
  store i64 %., ptr %11, align 8
  br label %13

13:                                               ; preds = %9, %8
  %14 = getelementptr inbounds nuw i8, ptr %4, i64 320
  %15 = load i32, ptr %14, align 8
  %16 = and i32 %15, 15
  %17 = icmp eq i32 %16, 1
  br i1 %17, label %20, label %18

18:                                               ; preds = %13
  %19 = getelementptr inbounds nuw i8, ptr %4, i64 324
  store i8 1, ptr %19, align 4
  br label %20

20:                                               ; preds = %18, %13
  %21 = and i32 %15, 268288
  %or.cond24 = icmp eq i32 %21, 0
  br i1 %or.cond24, label %22, label %38

22:                                               ; preds = %20
  %23 = getelementptr inbounds nuw i8, ptr %4, i64 240
  %24 = load i64, ptr %23, align 8
  %.not23 = icmp slt i64 %24, %1
  br i1 %.not23, label %31, label %25

25:                                               ; preds = %22
  %26 = tail call i32 @get_log_level() #15
  %27 = icmp sgt i32 %26, 4
  br i1 %27, label %28, label %38

28:                                               ; preds = %25
  %29 = getelementptr inbounds nuw i8, ptr %4, i64 272
  %30 = load ptr, ptr %29, align 8
  tail call void (i32, ptr, ...) @log_var(i32 noundef 5, ptr noundef nonnull @.str.106, ptr noundef %30) #15
  br label %38

31:                                               ; preds = %22
  %32 = or disjoint i32 %15, 2048
  store i32 %32, ptr %14, align 8
  %33 = tail call i64 @time(ptr noundef null) #15
  store i64 %33, ptr @last_node_update, align 8
  %34 = load ptr, ptr @avail_node_bitmap, align 8
  %35 = getelementptr inbounds nuw i8, ptr %4, i64 208
  %36 = load i32, ptr %35, align 8
  %37 = zext i32 %36 to i64
  tail call void @bit_clear(ptr noundef %34, i64 noundef %37) #15
  br label %38

38:                                               ; preds = %25, %28, %20, %31, %6
  ret void
}